target datalayout = "e-m:e-p270:32:32-p271:32:32-p272:64:64-i64:64-i128:128-f80:128-n8:16:32:64-S128"
target triple = "x86_64-pc-linux-gnu"

%struct.H5O_link_t = type { i32, i8, i64, i32, ptr, %union.anon }
%union.anon = type { %struct.H5O_link_ud_t }
%struct.H5O_link_ud_t = type { ptr, i64 }
%struct.H5G_loc_t = type { ptr, ptr }
%struct.H5L_trav_gibi_t = type { i32, i32, i64, ptr }

@.str = private unnamed_addr constant [100 x i8] c"generated/home/dtcxzyw/WorkSpace/Projects/compilers/llvm-opt-benchmark/bench/hdf5/hdf5/src/H5Lint.c\00", align 1
@H5E_LINK_g = external global i64, align 8
@H5E_NOTFOUND_g = external global i64, align 8
@H5E_CANTGET_g = external global i64, align 8
@.str.51 = private unnamed_addr constant [20 x i8] c"group doesn't exist\00", align 1
@.str.52 = private unnamed_addr constant [15 x i8] c"link not found\00", align 1
@.str.67 = private unnamed_addr constant [20 x i8] c"can't get link info\00", align 1
@__func__.H5L__get_info_by_idx_cb = private unnamed_addr constant [24 x i8] c"H5L__get_info_by_idx_cb\00", align 1

; Function Attrs: nounwind uwtable
define internal i32 @H5L__get_info_by_idx_cb(ptr noundef %0, ptr noundef %1, ptr noundef %2, ptr noundef %3, ptr noundef %4, ptr noundef %5) #0 {
  %7 = alloca ptr, align 8
  %8 = alloca ptr, align 8
  %9 = alloca ptr, align 8
  %10 = alloca ptr, align 8
  %11 = alloca ptr, align 8
  %12 = alloca ptr, align 8
  %13 = alloca ptr, align 8
  %14 = alloca %struct.H5O_link_t, align 8
  %15 = alloca i8, align 1
  %16 = alloca i32, align 4
  %17 = alloca i8, align 1
  store ptr %0, ptr %7, align 8
  store ptr %1, ptr %8, align 8
  store ptr %2, ptr %9, align 8
  store ptr %3, ptr %10, align 8
  store ptr %4, ptr %11, align 8
  store ptr %5, ptr %12, align 8
  %18 = load ptr, ptr %11, align 8
  store ptr %18, ptr %13, align 8
  store i8 0, ptr %15, align 1
  store i32 0, ptr %16, align 4
  store i8 0, ptr %17, align 1
  %19 = load ptr, ptr %10, align 8
  %20 = icmp eq ptr %19, null
  br i1 %20, label %21, label %36

21:                                               ; preds = %6
  br label %22

22:                                               ; preds = %21
  br label %23

23:                                               ; preds = %22
  br label %24

24:                                               ; preds = %23
  %25 = load i64, ptr @H5E_LINK_g, align 8
  %26 = load i64, ptr @H5E_NOTFOUND_g, align 8
  %27 = call i32 (ptr, ptr, i32, i64, i64, ptr, ...) @H5E_printf_stack(ptr noundef @.str, ptr noundef @__func__.H5L__get_info_by_idx_cb, i32 noundef 1846, i64 noundef %25, i64 noundef %26, ptr noundef @.str.51)
  br label %28

28:                                               ; preds = %24
  store i8 1, ptr %17, align 1
  %29 = load i8, ptr %17, align 1
  %30 = trunc i8 %29 to i1
  %31 = zext i1 %30 to i8
  store i8 %31, ptr %17, align 1
  br label %32

32:                                               ; preds = %28
  br label %33

33:                                               ; preds = %32
  store i32 -1, ptr %16, align 4
  br label %91

34:                                               ; No predecessors!
  br label %35

35:                                               ; preds = %34
  br label %36

36:                                               ; preds = %35, %6
  %37 = load ptr, ptr %10, align 8
  %38 = getelementptr inbounds %struct.H5G_loc_t, ptr %37, i32 0, i32 0
  %39 = load ptr, ptr %38, align 8
  %40 = load ptr, ptr %13, align 8
  %41 = getelementptr inbounds %struct.H5L_trav_gibi_t, ptr %40, i32 0, i32 0
  %42 = load i32, ptr %41, align 8
  %43 = load ptr, ptr %13, align 8
  %44 = getelementptr inbounds %struct.H5L_trav_gibi_t, ptr %43, i32 0, i32 1
  %45 = load i32, ptr %44, align 4
  %46 = load ptr, ptr %13, align 8
  %47 = getelementptr inbounds %struct.H5L_trav_gibi_t, ptr %46, i32 0, i32 2
  %48 = load i64, ptr %47, align 8
  %49 = call i32 @H5G_obj_lookup_by_idx(ptr noundef %39, i32 noundef %42, i32 noundef %45, i64 noundef %48, ptr noundef %14)
  %50 = icmp slt i32 %49, 0
  br i1 %50, label %51, label %66

51:                                               ; preds = %36
  br label %52

52:                                               ; preds = %51
  br label %53

53:                                               ; preds = %52
  br label %54

54:                                               ; preds = %53
  %55 = load i64, ptr @H5E_LINK_g, align 8
  %56 = load i64, ptr @H5E_NOTFOUND_g, align 8
  %57 = call i32 (ptr, ptr, i32, i64, i64, ptr, ...) @H5E_printf_stack(ptr noundef @.str, ptr noundef @__func__.H5L__get_info_by_idx_cb, i32 noundef 1850, i64 noundef %55, i64 noundef %56, ptr noundef @.str.52)
  br label %58

58:                                               ; preds = %54
  store i8 1, ptr %17, align 1
  %59 = load i8, ptr %17, align 1
  %60 = trunc i8 %59 to i1
  %61 = zext i1 %60 to i8
  store i8 %61, ptr %17, align 1
  br label %62

62:                                               ; preds = %58
  br label %63

63:                                               ; preds = %62
  store i32 -1, ptr %16, align 4
  br label %91

64:                                               ; No predecessors!
  br label %65

65:                                               ; preds = %64
  br label %66

66:                                               ; preds = %65, %36
  store i8 1, ptr %15, align 1
  %67 = load ptr, ptr %10, align 8
  %68 = getelementptr inbounds %struct.H5G_loc_t, ptr %67, i32 0, i32 0
  %69 = load ptr, ptr %68, align 8
  %70 = load ptr, ptr %13, align 8
  %71 = getelementptr inbounds %struct.H5L_trav_gibi_t, ptr %70, i32 0, i32 3
  %72 = load ptr, ptr %71, align 8
  %73 = call i32 @H5G_link_to_info(ptr noundef %69, ptr noundef %14, ptr noundef %72)
  %74 = icmp slt i32 %73, 0
  br i1 %74, label %75, label %90

75:                                               ; preds = %66
  br label %76

76:                                               ; preds = %75
  br label %77

77:                                               ; preds = %76
  br label %78

78:                                               ; preds = %77
  %79 = load i64, ptr @H5E_LINK_g, align 8
  %80 = load i64, ptr @H5E_CANTGET_g, align 8
  %81 = call i32 (ptr, ptr, i32, i64, i64, ptr, ...) @H5E_printf_stack(ptr noundef @.str, ptr noundef @__func__.H5L__get_info_by_idx_cb, i32 noundef 1855, i64 noundef %79, i64 noundef %80, ptr noundef @.str.67)
  br label %82

82:                                               ; preds = %78
  store i8 1, ptr %17, align 1
  %83 = load i8, ptr %17, align 1
  %84 = trunc i8 %83 to i1
  %85 = zext i1 %84 to i8
  store i8 %85, ptr %17, align 1
  br label %86

86:                                               ; preds = %82
  br label %87

87:                                               ; preds = %86
  store i32 -1, ptr %16, align 4
  br label %91

88:                                               ; No predecessors!
  br label %89

89:                                               ; preds = %88
  br label %90

90:                                               ; preds = %89, %66
  br label %91

91:                                               ; preds = %90, %87, %63, %33
  %92 = load i8, ptr %15, align 1
  %93 = trunc i8 %92 to i1
  br i1 %93, label %94, label %96

94:                                               ; preds = %91
  %95 = call i32 @H5O_msg_reset(i32 noundef 6, ptr noundef %14)
  br label %96

96:                                               ; preds = %94, %91
  %97 = load ptr, ptr %12, align 8
  store i32 0, ptr %97, align 4
  %98 = load i32, ptr %16, align 4
  ret i32 %98
}